target datalayout = "e-m:e-p270:32:32-p271:32:32-p272:64:64-i64:64-i128:128-f80:128-n8:16:32:64-S128"
target triple = "x86_64-pc-linux-gnu"

%"class.std::__cxx11::basic_string" = type { %"struct.std::__cxx11::basic_string<char>::_Alloc_hider", i64, %union.anon }
%"struct.std::__cxx11::basic_string<char>::_Alloc_hider" = type { ptr }
%union.anon = type { i64, [8 x i8] }

; Function Attrs: mustprogress uwtable
define void @_ZN32pxrInternal_v0_24__pxrReserved__21TfMakeValidIdentifierERKNSt7__cxx1112basic_stringIcSt11char_traitsIcESaIcEEE(ptr dead_on_unwind noalias writable sret(%"class.std::__cxx11::basic_string") align 8 %0, ptr noundef nonnull align 8 dereferenceable(32) %1) #0 personality ptr @__gxx_personality_v0 {
  %3 = alloca ptr, align 8
  %4 = alloca ptr, align 8
  %5 = alloca i1, align 1
  %6 = alloca ptr, align 8
  %7 = alloca i32, align 4
  %8 = alloca i32, align 4
  %9 = alloca ptr, align 8
  store ptr %0, ptr %3, align 8
  store ptr %1, ptr %4, align 8
  store i1 false, ptr %5, align 1
  call void @_ZNSt7__cxx1112basic_stringIcSt11char_traitsIcESaIcEEC1Ev(ptr noundef nonnull align 8 dereferenceable(32) %0) #13
  %10 = load ptr, ptr %4, align 8
  %11 = call noundef zeroext i1 @_ZNKSt7__cxx1112basic_stringIcSt11char_traitsIcESaIcEE5emptyEv(ptr noundef nonnull align 8 dereferenceable(32) %10) #13
  br i1 %11, label %12, label %18

12:                                               ; preds = %2
  invoke void @_ZNSt7__cxx1112basic_stringIcSt11char_traitsIcESaIcEE9push_backEc(ptr noundef nonnull align 8 dereferenceable(32) %0, i8 noundef signext 95)
          to label %13 unwind label %14

13:                                               ; preds = %12
  store i1 true, ptr %5, align 1
  store i32 1, ptr %8, align 4
  br label %107

14:                                               ; preds = %98, %96, %50, %48, %18, %12
  %15 = landingpad { ptr, i32 }
          cleanup
  %16 = extractvalue { ptr, i32 } %15, 0
  store ptr %16, ptr %6, align 8
  %17 = extractvalue { ptr, i32 } %15, 1
  store i32 %17, ptr %7, align 4
  call void @_ZNSt7__cxx1112basic_stringIcSt11char_traitsIcESaIcEED1Ev(ptr noundef nonnull align 8 dereferenceable(32) %0) #13
  br label %111

18:                                               ; preds = %2
  %19 = load ptr, ptr %4, align 8
  %20 = call noundef i64 @_ZNKSt7__cxx1112basic_stringIcSt11char_traitsIcESaIcEE4sizeEv(ptr noundef nonnull align 8 dereferenceable(32) %19) #13
  invoke void @_ZNSt7__cxx1112basic_stringIcSt11char_traitsIcESaIcEE7reserveEm(ptr noundef nonnull align 8 dereferenceable(32) %0, i64 noundef %20)
          to label %21 unwind label %14

21:                                               ; preds = %18
  %22 = load ptr, ptr %4, align 8
  %23 = call noundef ptr @_ZNKSt7__cxx1112basic_stringIcSt11char_traitsIcESaIcEE5c_strEv(ptr noundef nonnull align 8 dereferenceable(32) %22) #13
  store ptr %23, ptr %9, align 8
  %24 = load ptr, ptr %9, align 8
  %25 = load i8, ptr %24, align 1
  %26 = sext i8 %25 to i32
  %27 = icmp sle i32 97, %26
  br i1 %27, label %28, label %33

28:                                               ; preds = %21
  %29 = load ptr, ptr %9, align 8
  %30 = load i8, ptr %29, align 1
  %31 = sext i8 %30 to i32
  %32 = icmp sle i32 %31, 122
  br i1 %32, label %50, label %33

33:                                               ; preds = %28, %21
  %34 = load ptr, ptr %9, align 8
  %35 = load i8, ptr %34, align 1
  %36 = sext i8 %35 to i32
  %37 = icmp sle i32 65, %36
  br i1 %37, label %38, label %43

38:                                               ; preds = %33
  %39 = load ptr, ptr %9, align 8
  %40 = load i8, ptr %39, align 1
  %41 = sext i8 %40 to i32
  %42 = icmp sle i32 %41, 90
  br i1 %42, label %50, label %43

43:                                               ; preds = %38, %33
  %44 = load ptr, ptr %9, align 8
  %45 = load i8, ptr %44, align 1
  %46 = sext i8 %45 to i32
  %47 = icmp eq i32 %46, 95
  br i1 %47, label %50, label %48

48:                                               ; preds = %43
  invoke void @_ZNSt7__cxx1112basic_stringIcSt11char_traitsIcESaIcEE9push_backEc(ptr noundef nonnull align 8 dereferenceable(32) %0, i8 noundef signext 95)
          to label %49 unwind label %14

49:                                               ; preds = %48
  br label %54

50:                                               ; preds = %43, %38, %28
  %51 = load ptr, ptr %9, align 8
  %52 = load i8, ptr %51, align 1
  invoke void @_ZNSt7__cxx1112basic_stringIcSt11char_traitsIcESaIcEE9push_backEc(ptr noundef nonnull align 8 dereferenceable(32) %0, i8 noundef signext %52)
          to label %53 unwind label %14

53:                                               ; preds = %50
  br label %54

54:                                               ; preds = %53, %49
  %55 = load ptr, ptr %9, align 8
  %56 = getelementptr inbounds i8, ptr %55, i32 1
  store ptr %56, ptr %9, align 8
  br label %57

57:                                               ; preds = %103, %54
  %58 = load ptr, ptr %9, align 8
  %59 = load i8, ptr %58, align 1
  %60 = icmp ne i8 %59, 0
  br i1 %60, label %61, label %106

61:                                               ; preds = %57
  %62 = load ptr, ptr %9, align 8
  %63 = load i8, ptr %62, align 1
  %64 = sext i8 %63 to i32
  %65 = icmp sle i32 97, %64
  br i1 %65, label %66, label %71

66:                                               ; preds = %61
  %67 = load ptr, ptr %9, align 8
  %68 = load i8, ptr %67, align 1
  %69 = sext i8 %68 to i32
  %70 = icmp sle i32 %69, 122
  br i1 %70, label %98, label %71

71:                                               ; preds = %66, %61
  %72 = load ptr, ptr %9, align 8
  %73 = load i8, ptr %72, align 1
  %74 = sext i8 %73 to i32
  %75 = icmp sle i32 65, %74
  br i1 %75, label %76, label %81

76:                                               ; preds = %71
  %77 = load ptr, ptr %9, align 8
  %78 = load i8, ptr %77, align 1
  %79 = sext i8 %78 to i32
  %80 = icmp sle i32 %79, 90
  br i1 %80, label %98, label %81

81:                                               ; preds = %76, %71
  %82 = load ptr, ptr %9, align 8
  %83 = load i8, ptr %82, align 1
  %84 = sext i8 %83 to i32
  %85 = icmp sle i32 48, %84
  br i1 %85, label %86, label %91

86:                                               ; preds = %81
  %87 = load ptr, ptr %9, align 8
  %88 = load i8, ptr %87, align 1
  %89 = sext i8 %88 to i32
  %90 = icmp sle i32 %89, 57
  br i1 %90, label %98, label %91

91:                                               ; preds = %86, %81
  %92 = load ptr, ptr %9, align 8
  %93 = load i8, ptr %92, align 1
  %94 = sext i8 %93 to i32
  %95 = icmp eq i32 %94, 95
  br i1 %95, label %98, label %96

96:                                               ; preds = %91
  invoke void @_ZNSt7__cxx1112basic_stringIcSt11char_traitsIcESaIcEE9push_backEc(ptr noundef nonnull align 8 dereferenceable(32) %0, i8 noundef signext 95)
          to label %97 unwind label %14

97:                                               ; preds = %96
  br label %102

98:                                               ; preds = %91, %86, %76, %66
  %99 = load ptr, ptr %9, align 8
  %100 = load i8, ptr %99, align 1
  invoke void @_ZNSt7__cxx1112basic_stringIcSt11char_traitsIcESaIcEE9push_backEc(ptr noundef nonnull align 8 dereferenceable(32) %0, i8 noundef signext %100)
          to label %101 unwind label %14

101:                                              ; preds = %98
  br label %102

102:                                              ; preds = %101, %97
  br label %103

103:                                              ; preds = %102
  %104 = load ptr, ptr %9, align 8
  %105 = getelementptr inbounds i8, ptr %104, i32 1
  store ptr %105, ptr %9, align 8
  br label %57, !llvm.loop !40

106:                                              ; preds = %57
  store i1 true, ptr %5, align 1
  store i32 1, ptr %8, align 4
  br label %107

107:                                              ; preds = %106, %13
  %108 = load i1, ptr %5, align 1
  br i1 %108, label %110, label %109

109:                                              ; preds = %107
  call void @_ZNSt7__cxx1112basic_stringIcSt11char_traitsIcESaIcEED1Ev(ptr noundef nonnull align 8 dereferenceable(32) %0) #13
  br label %110

110:                                              ; preds = %109, %107
  ret void

111:                                              ; preds = %14
  %112 = load ptr, ptr %6, align 8
  %113 = load i32, ptr %7, align 4
  %114 = insertvalue { ptr, i32 } poison, ptr %112, 0
  %115 = insertvalue { ptr, i32 } %114, i32 %113, 1
  resume { ptr, i32 } %115
}