; Function Attrs: mustprogress uwtable
define void @_ZN32pxrInternal_v0_24__pxrReserved__21TfMakeValidIdentifierERKNSt7__cxx1112basic_stringIcSt11char_traitsIcESaIcEEE(ptr dead_on_unwind noalias nonnull writable sret(%"class.std::__cxx11::basic_string") align 8 %0, ptr noundef nonnull align 8 dereferenceable(32) %1) local_unnamed_addr #0 personality ptr @__gxx_personality_v0 {
  tail call void @_ZNSt7__cxx1112basic_stringIcSt11char_traitsIcESaIcEEC1Ev(ptr noundef nonnull align 8 dereferenceable(32) %0) #22
  %3 = tail call noundef zeroext i1 @_ZNKSt7__cxx1112basic_stringIcSt11char_traitsIcESaIcEE5emptyEv(ptr noundef nonnull align 8 dereferenceable(32) %1) #22
  br i1 %3, label %4, label %6

4:                                                ; preds = %2
  invoke void @_ZNSt7__cxx1112basic_stringIcSt11char_traitsIcESaIcEE9push_backEc(ptr noundef nonnull align 8 dereferenceable(32) %0, i8 noundef signext 95)
          to label %.loopexit unwind label %.loopexit.split-lp

.loopexit36:                                      ; preds = %.invoke
  %lpad.loopexit = landingpad { ptr, i32 }
          cleanup
  br label %5

.loopexit.split-lp:                               ; preds = %.invoke40, %4, %6
  %lpad.loopexit.split-lp = landingpad { ptr, i32 }
          cleanup
  br label %5

5:                                                ; preds = %.loopexit.split-lp, %.loopexit36
  %lpad.phi = phi { ptr, i32 } [ %lpad.loopexit, %.loopexit36 ], [ %lpad.loopexit.split-lp, %.loopexit.split-lp ]
  tail call void @_ZNSt7__cxx1112basic_stringIcSt11char_traitsIcESaIcEED1Ev(ptr noundef nonnull align 8 dereferenceable(32) %0) #22
  resume { ptr, i32 } %lpad.phi

6:                                                ; preds = %2
  %7 = tail call noundef i64 @_ZNKSt7__cxx1112basic_stringIcSt11char_traitsIcESaIcEE4sizeEv(ptr noundef nonnull align 8 dereferenceable(32) %1) #22
  invoke void @_ZNSt7__cxx1112basic_stringIcSt11char_traitsIcESaIcEE7reserveEm(ptr noundef nonnull align 8 dereferenceable(32) %0, i64 noundef %7)
          to label %8 unwind label %.loopexit.split-lp

8:                                                ; preds = %6
  %9 = tail call noundef ptr @_ZNKSt7__cxx1112basic_stringIcSt11char_traitsIcESaIcEE5c_strEv(ptr noundef nonnull align 8 dereferenceable(32) %1) #22
  %10 = load i8, ptr %9, align 1
  %11 = add i8 %10, -97
  %or.cond = icmp ult i8 %11, 26
  br i1 %or.cond, label %16, label %12

12:                                               ; preds = %8
  %13 = add i8 %10, -65
  %or.cond29 = icmp ult i8 %13, 26
  %14 = icmp eq i8 %10, 95
  %or.cond33 = or i1 %14, %or.cond29
  br i1 %or.cond33, label %16, label %.invoke40

.invoke40:                                        ; preds = %12, %16
  %15 = phi i8 [ %10, %16 ], [ 95, %12 ]
  invoke void @_ZNSt7__cxx1112basic_stringIcSt11char_traitsIcESaIcEE9push_backEc(ptr noundef nonnull align 8 dereferenceable(32) %0, i8 noundef signext %15)
          to label %17 unwind label %.loopexit.split-lp

16:                                               ; preds = %12, %8
  br label %.invoke40

17:                                               ; preds = %.invoke40
  %.037 = getelementptr inbounds i8, ptr %9, i64 1
  %18 = load i8, ptr %.037, align 1
  %.not38 = icmp eq i8 %18, 0
  br i1 %.not38, label %.loopexit, label %.lr.ph

.lr.ph:                                           ; preds = %17, %27
  %19 = phi i8 [ %28, %27 ], [ %18, %17 ]
  %.039 = phi ptr [ %.0, %27 ], [ %.037, %17 ]
  %20 = and i8 %19, -33
  %21 = add i8 %20, -65
  %or.cond35 = icmp ult i8 %21, 26
  br i1 %or.cond35, label %26, label %22

22:                                               ; preds = %.lr.ph
  %23 = add i8 %19, -48
  %or.cond32 = icmp ult i8 %23, 10
  %24 = icmp eq i8 %19, 95
  %or.cond34 = or i1 %24, %or.cond32
  br i1 %or.cond34, label %26, label %.invoke

.invoke:                                          ; preds = %22, %26
  %25 = phi i8 [ %19, %26 ], [ 95, %22 ]
  invoke void @_ZNSt7__cxx1112basic_stringIcSt11char_traitsIcESaIcEE9push_backEc(ptr noundef nonnull align 8 dereferenceable(32) %0, i8 noundef signext %25)
          to label %27 unwind label %.loopexit36

26:                                               ; preds = %22, %.lr.ph
  br label %.invoke

27:                                               ; preds = %.invoke
  %.0 = getelementptr inbounds i8, ptr %.039, i64 1
  %28 = load i8, ptr %.0, align 1
  %.not = icmp eq i8 %28, 0
  br i1 %.not, label %.loopexit, label %.lr.ph, !llvm.loop !53

.loopexit:                                        ; preds = %27, %17, %4
  ret void
}